target datalayout = "e-m:e-p270:32:32-p271:32:32-p272:64:64-i64:64-i128:128-f80:128-n8:16:32:64-S128"
target triple = "x86_64-pc-linux-gnu"

; Function Attrs: nounwind uwtable
define hidden i32 @png_check_fp_string(ptr noundef %0, i64 noundef %1) #0 {
  %3 = alloca i32, align 4
  %4 = alloca ptr, align 8
  %5 = alloca i64, align 8
  %6 = alloca i32, align 4
  %7 = alloca i64, align 8
  store ptr %0, ptr %4, align 8
  store i64 %1, ptr %5, align 8
  store i32 0, ptr %6, align 4
  store i64 0, ptr %7, align 8
  %8 = load ptr, ptr %4, align 8
  %9 = load i64, ptr %5, align 8
  %10 = call i32 @png_check_fp_number(ptr noundef %8, i64 noundef %9, ptr noundef %6, ptr noundef %7)
  %11 = icmp ne i32 %10, 0
  br i1 %11, label %12, label %25

12:                                               ; preds = %2
  %13 = load i64, ptr %7, align 8
  %14 = load i64, ptr %5, align 8
  %15 = icmp eq i64 %13, %14
  br i1 %15, label %23, label %16

16:                                               ; preds = %12
  %17 = load ptr, ptr %4, align 8
  %18 = load i64, ptr %7, align 8
  %19 = getelementptr inbounds i8, ptr %17, i64 %18
  %20 = load i8, ptr %19, align 1
  %21 = sext i8 %20 to i32
  %22 = icmp eq i32 %21, 0
  br i1 %22, label %23, label %25

23:                                               ; preds = %16, %12
  %24 = load i32, ptr %6, align 4
  store i32 %24, ptr %3, align 4
  br label %26

25:                                               ; preds = %16, %2
  store i32 0, ptr %3, align 4
  br label %26

26:                                               ; preds = %25, %23
  %27 = load i32, ptr %3, align 4
  ret i32 %27
}