; Function Attrs: nofree norecurse nosync nounwind memory(argmem: readwrite) uwtable
define hidden i32 @png_check_fp_string(ptr nocapture noundef readonly %0, i64 noundef %1) local_unnamed_addr #16 {
  %3 = alloca i32, align 4
  %4 = alloca i64, align 8
  store i32 0, ptr %3, align 4
  store i64 0, ptr %4, align 8
  %5 = call i32 @png_check_fp_number(ptr noundef %0, i64 noundef %1, ptr noundef nonnull %3, ptr noundef nonnull %4)
  %.not = icmp eq i32 %5, 0
  br i1 %.not, label %15, label %6

6:                                                ; preds = %2
  %7 = load i64, ptr %4, align 8
  %8 = icmp eq i64 %7, %1
  br i1 %8, label %13, label %9

9:                                                ; preds = %6
  %10 = getelementptr inbounds i8, ptr %0, i64 %7
  %11 = load i8, ptr %10, align 1
  %12 = icmp eq i8 %11, 0
  br i1 %12, label %13, label %15

13:                                               ; preds = %9, %6
  %14 = load i32, ptr %3, align 4
  br label %15

15:                                               ; preds = %2, %9, %13
  %.0 = phi i32 [ %14, %13 ], [ 0, %9 ], [ 0, %2 ]
  ret i32 %.0
}